
copy.elf:     file format elf32-littleriscv


Disassembly of section .text:

10000000 <_start>:
10000000:	10010137          	lui	x2,0x10010
10000004:	ff010113          	addi	x2,x2,-16 # 1000fff0 <f+0xf9f0>
10000008:	58c000ef          	jal	x1,10000594 <main>

1000000c <copy>:
1000000c:	ff010113          	addi	x2,x2,-16
10000010:	00812423          	sw	x8,8(x2)
10000014:	00912223          	sw	x9,4(x2)
10000018:	01212023          	sw	x18,0(x2)
1000001c:	00112623          	sw	x1,12(x2)
10000020:	00050913          	mv	x18,x10
10000024:	00058493          	mv	x9,x11
10000028:	00000413          	li	x8,0
1000002c:	00c0006f          	j	10000038 <copy+0x2c>
10000030:	4f0000ef          	jal	x1,10000520 <strcmp>
10000034:	02050463          	beqz	x10,1000005c <copy+0x50>
10000038:	008907b3          	add	x15,x18,x8
1000003c:	0007c783          	lbu	x15,0(x15)
10000040:	00848733          	add	x14,x9,x8
10000044:	00140413          	addi	x8,x8,1
10000048:	00f70023          	sb	x15,0(x14)
1000004c:	00090593          	mv	x11,x18
10000050:	00048513          	mv	x10,x9
10000054:	0ff47413          	andi	x8,x8,255
10000058:	fc079ce3          	bnez	x15,10000030 <copy+0x24>
1000005c:	00c12083          	lw	x1,12(x2)
10000060:	00812403          	lw	x8,8(x2)
10000064:	00412483          	lw	x9,4(x2)
10000068:	00012903          	lw	x18,0(x2)
1000006c:	01010113          	addi	x2,x2,16
10000070:	00008067          	ret

10000074 <assert_equals>:
10000074:	40b50533          	sub	x10,x10,x11
10000078:	00153513          	seqz	x10,x10
1000007c:	00008067          	ret

10000080 <ascii_dec_to_uint8>:
10000080:	00050693          	mv	x13,x10
10000084:	00350893          	addi	x17,x10,3
10000088:	00900813          	li	x16,9
1000008c:	00000513          	li	x10,0
10000090:	0006c603          	lbu	x12,0(x13)
10000094:	00351793          	slli	x15,x10,0x3
10000098:	00078713          	mv	x14,x15
1000009c:	00151593          	slli	x11,x10,0x1
100000a0:	00b707b3          	add	x15,x14,x11
100000a4:	fd078793          	addi	x15,x15,-48
100000a8:	fd060713          	addi	x14,x12,-48
100000ac:	0ff77713          	andi	x14,x14,255
100000b0:	00168693          	addi	x13,x13,1
100000b4:	00c787b3          	add	x15,x15,x12
100000b8:	00060863          	beqz	x12,100000c8 <ascii_dec_to_uint8+0x48>
100000bc:	00e86463          	bltu	x16,x14,100000c4 <ascii_dec_to_uint8+0x44>
100000c0:	0ff7f513          	andi	x10,x15,255
100000c4:	fd1696e3          	bne	x13,x17,10000090 <ascii_dec_to_uint8+0x10>
100000c8:	00008067          	ret

100000cc <ascii_dec_to_uint16>:
100000cc:	00050693          	mv	x13,x10
100000d0:	00550893          	addi	x17,x10,5
100000d4:	00900813          	li	x16,9
100000d8:	00000513          	li	x10,0
100000dc:	0006c603          	lbu	x12,0(x13)
100000e0:	00351793          	slli	x15,x10,0x3
100000e4:	00078713          	mv	x14,x15
100000e8:	00151593          	slli	x11,x10,0x1
100000ec:	00b707b3          	add	x15,x14,x11
100000f0:	fd078793          	addi	x15,x15,-48
100000f4:	fd060713          	addi	x14,x12,-48
100000f8:	0ff77713          	andi	x14,x14,255
100000fc:	00168693          	addi	x13,x13,1
10000100:	00c787b3          	add	x15,x15,x12
10000104:	00060a63          	beqz	x12,10000118 <ascii_dec_to_uint16+0x4c>
10000108:	00e86663          	bltu	x16,x14,10000114 <ascii_dec_to_uint16+0x48>
1000010c:	01079513          	slli	x10,x15,0x10
10000110:	01055513          	srli	x10,x10,0x10
10000114:	fd1694e3          	bne	x13,x17,100000dc <ascii_dec_to_uint16+0x10>
10000118:	00008067          	ret

1000011c <ascii_dec_to_uint32>:
1000011c:	00050693          	mv	x13,x10
10000120:	00950893          	addi	x17,x10,9
10000124:	00900813          	li	x16,9
10000128:	00000513          	li	x10,0
1000012c:	0006c583          	lbu	x11,0(x13)
10000130:	00351713          	slli	x14,x10,0x3
10000134:	00151793          	slli	x15,x10,0x1
10000138:	fd058613          	addi	x12,x11,-48
1000013c:	00f707b3          	add	x15,x14,x15
10000140:	0ff67613          	andi	x12,x12,255
10000144:	00168693          	addi	x13,x13,1
10000148:	fd078793          	addi	x15,x15,-48
1000014c:	00058863          	beqz	x11,1000015c <ascii_dec_to_uint32+0x40>
10000150:	00c86463          	bltu	x16,x12,10000158 <ascii_dec_to_uint32+0x3c>
10000154:	00f58533          	add	x10,x11,x15
10000158:	fd169ae3          	bne	x13,x17,1000012c <ascii_dec_to_uint32+0x10>
1000015c:	00008067          	ret

10000160 <ascii_hex_to_uint8>:
10000160:	00250e13          	addi	x28,x10,2
10000164:	00000613          	li	x12,0
10000168:	00900313          	li	x6,9
1000016c:	00500893          	li	x17,5
10000170:	00054783          	lbu	x15,0(x10)
10000174:	00461693          	slli	x13,x12,0x4
10000178:	00068713          	mv	x14,x13
1000017c:	fd078593          	addi	x11,x15,-48
10000180:	f9f78813          	addi	x16,x15,-97
10000184:	fd068693          	addi	x13,x13,-48
10000188:	fa970713          	addi	x14,x14,-87
1000018c:	0ff5f593          	andi	x11,x11,255
10000190:	00f686b3          	add	x13,x13,x15
10000194:	0ff87813          	andi	x16,x16,255
10000198:	00f70733          	add	x14,x14,x15
1000019c:	00078a63          	beqz	x15,100001b0 <ascii_hex_to_uint8+0x50>
100001a0:	00b36c63          	bltu	x6,x11,100001b8 <ascii_hex_to_uint8+0x58>
100001a4:	0ff6f613          	andi	x12,x13,255
100001a8:	00150513          	addi	x10,x10,1
100001ac:	fcae12e3          	bne	x28,x10,10000170 <ascii_hex_to_uint8+0x10>
100001b0:	00060513          	mv	x10,x12
100001b4:	00008067          	ret
100001b8:	0108e663          	bltu	x17,x16,100001c4 <ascii_hex_to_uint8+0x64>
100001bc:	0ff77613          	andi	x12,x14,255
100001c0:	fe9ff06f          	j	100001a8 <ascii_hex_to_uint8+0x48>
100001c4:	fbf78713          	addi	x14,x15,-65
100001c8:	0ff77713          	andi	x14,x14,255
100001cc:	fce8eee3          	bltu	x17,x14,100001a8 <ascii_hex_to_uint8+0x48>
100001d0:	00461613          	slli	x12,x12,0x4
100001d4:	fc978793          	addi	x15,x15,-55
100001d8:	00f607b3          	add	x15,x12,x15
100001dc:	0ff7f613          	andi	x12,x15,255
100001e0:	fc9ff06f          	j	100001a8 <ascii_hex_to_uint8+0x48>

100001e4 <ascii_hex_to_uint16>:
100001e4:	00450e13          	addi	x28,x10,4
100001e8:	00000613          	li	x12,0
100001ec:	00900313          	li	x6,9
100001f0:	00500893          	li	x17,5
100001f4:	00054783          	lbu	x15,0(x10)
100001f8:	00461693          	slli	x13,x12,0x4
100001fc:	00068713          	mv	x14,x13
10000200:	fd078593          	addi	x11,x15,-48
10000204:	f9f78813          	addi	x16,x15,-97
10000208:	fd068693          	addi	x13,x13,-48
1000020c:	fa970713          	addi	x14,x14,-87
10000210:	0ff5f593          	andi	x11,x11,255
10000214:	00f686b3          	add	x13,x13,x15
10000218:	0ff87813          	andi	x16,x16,255
1000021c:	00f70733          	add	x14,x14,x15
10000220:	00078c63          	beqz	x15,10000238 <ascii_hex_to_uint16+0x54>
10000224:	00b36e63          	bltu	x6,x11,10000240 <ascii_hex_to_uint16+0x5c>
10000228:	01069613          	slli	x12,x13,0x10
1000022c:	01065613          	srli	x12,x12,0x10
10000230:	00150513          	addi	x10,x10,1
10000234:	fcae10e3          	bne	x28,x10,100001f4 <ascii_hex_to_uint16+0x10>
10000238:	00060513          	mv	x10,x12
1000023c:	00008067          	ret
10000240:	0108e863          	bltu	x17,x16,10000250 <ascii_hex_to_uint16+0x6c>
10000244:	01071613          	slli	x12,x14,0x10
10000248:	01065613          	srli	x12,x12,0x10
1000024c:	fe5ff06f          	j	10000230 <ascii_hex_to_uint16+0x4c>
10000250:	fbf78713          	addi	x14,x15,-65
10000254:	0ff77713          	andi	x14,x14,255
10000258:	fce8ece3          	bltu	x17,x14,10000230 <ascii_hex_to_uint16+0x4c>
1000025c:	00461613          	slli	x12,x12,0x4
10000260:	fc978793          	addi	x15,x15,-55
10000264:	00f607b3          	add	x15,x12,x15
10000268:	01079613          	slli	x12,x15,0x10
1000026c:	01065613          	srli	x12,x12,0x10
10000270:	fc1ff06f          	j	10000230 <ascii_hex_to_uint16+0x4c>

10000274 <ascii_hex_to_uint32>:
10000274:	00050613          	mv	x12,x10
10000278:	00850e13          	addi	x28,x10,8
1000027c:	00900313          	li	x6,9
10000280:	00000513          	li	x10,0
10000284:	00500893          	li	x17,5
10000288:	0100006f          	j	10000298 <ascii_hex_to_uint32+0x24>
1000028c:	00d78533          	add	x10,x15,x13
10000290:	00160613          	addi	x12,x12,1
10000294:	04ce0063          	beq	x28,x12,100002d4 <ascii_hex_to_uint32+0x60>
10000298:	00064783          	lbu	x15,0(x12)
1000029c:	00451693          	slli	x13,x10,0x4
100002a0:	00068713          	mv	x14,x13
100002a4:	fd078593          	addi	x11,x15,-48
100002a8:	f9f78813          	addi	x16,x15,-97
100002ac:	0ff5f593          	andi	x11,x11,255
100002b0:	fd068693          	addi	x13,x13,-48
100002b4:	0ff87813          	andi	x16,x16,255
100002b8:	fa970713          	addi	x14,x14,-87
100002bc:	00078c63          	beqz	x15,100002d4 <ascii_hex_to_uint32+0x60>
100002c0:	fcb376e3          	bgeu	x6,x11,1000028c <ascii_hex_to_uint32+0x18>
100002c4:	0108ea63          	bltu	x17,x16,100002d8 <ascii_hex_to_uint32+0x64>
100002c8:	00e78533          	add	x10,x15,x14
100002cc:	00160613          	addi	x12,x12,1
100002d0:	fcce14e3          	bne	x28,x12,10000298 <ascii_hex_to_uint32+0x24>
100002d4:	00008067          	ret
100002d8:	fbf78713          	addi	x14,x15,-65
100002dc:	0ff77713          	andi	x14,x14,255
100002e0:	fae8e8e3          	bltu	x17,x14,10000290 <ascii_hex_to_uint32+0x1c>
100002e4:	00451713          	slli	x14,x10,0x4
100002e8:	fc978793          	addi	x15,x15,-55
100002ec:	00e78533          	add	x10,x15,x14
100002f0:	fddff06f          	j	100002cc <ascii_hex_to_uint32+0x58>

100002f4 <uint8_to_ascii_hex>:
100002f4:	00100713          	li	x14,1
100002f8:	00050793          	mv	x15,x10
100002fc:	06c77463          	bgeu	x14,x12,10000364 <uint8_to_ascii_hex+0x70>
10000300:	40455713          	srai	x14,x10,0x4
10000304:	00900513          	li	x10,9
10000308:	0ff77693          	andi	x13,x14,255
1000030c:	02e55c63          	bge	x10,x14,10000344 <uint8_to_ascii_hex+0x50>
10000310:	05768693          	addi	x13,x13,87
10000314:	00d58023          	sb	x13,0(x11)
10000318:	00200713          	li	x14,2
1000031c:	04e60863          	beq	x12,x14,1000036c <uint8_to_ascii_hex+0x78>
10000320:	00f7f793          	andi	x15,x15,15
10000324:	00900693          	li	x13,9
10000328:	00258713          	addi	x14,x11,2
1000032c:	02f6e263          	bltu	x13,x15,10000350 <uint8_to_ascii_hex+0x5c>
10000330:	03078793          	addi	x15,x15,48
10000334:	00f580a3          	sb	x15,1(x11)
10000338:	00070023          	sb	x0,0(x14)
1000033c:	00058513          	mv	x10,x11
10000340:	00008067          	ret
10000344:	03068693          	addi	x13,x13,48
10000348:	00d58023          	sb	x13,0(x11)
1000034c:	fcdff06f          	j	10000318 <uint8_to_ascii_hex+0x24>
10000350:	05778793          	addi	x15,x15,87
10000354:	00f580a3          	sb	x15,1(x11)
10000358:	00070023          	sb	x0,0(x14)
1000035c:	00058513          	mv	x10,x11
10000360:	00008067          	ret
10000364:	00058713          	mv	x14,x11
10000368:	fd1ff06f          	j	10000338 <uint8_to_ascii_hex+0x44>
1000036c:	00158713          	addi	x14,x11,1
10000370:	fc9ff06f          	j	10000338 <uint8_to_ascii_hex+0x44>

10000374 <uint16_to_ascii_hex>:
10000374:	00000693          	li	x13,0
10000378:	00900e93          	li	x29,9
1000037c:	00400e13          	li	x28,4
10000380:	00168713          	addi	x14,x13,1
10000384:	40e007b3          	neg	x15,x14
10000388:	00279793          	slli	x15,x15,0x2
1000038c:	01078793          	addi	x15,x15,16
10000390:	40f557b3          	sra	x15,x10,x15
10000394:	00f7f793          	andi	x15,x15,15
10000398:	00e58833          	add	x16,x11,x14
1000039c:	03078313          	addi	x6,x15,48
100003a0:	05778893          	addi	x17,x15,87
100003a4:	02c77663          	bgeu	x14,x12,100003d0 <uint16_to_ascii_hex+0x5c>
100003a8:	00feee63          	bltu	x29,x15,100003c4 <uint16_to_ascii_hex+0x50>
100003ac:	fe680fa3          	sb	x6,-1(x16)
100003b0:	00070693          	mv	x13,x14
100003b4:	fdc716e3          	bne	x14,x28,10000380 <uint16_to_ascii_hex+0xc>
100003b8:	00080023          	sb	x0,0(x16)
100003bc:	00058513          	mv	x10,x11
100003c0:	00008067          	ret
100003c4:	00e58833          	add	x16,x11,x14
100003c8:	ff180fa3          	sb	x17,-1(x16)
100003cc:	fe5ff06f          	j	100003b0 <uint16_to_ascii_hex+0x3c>
100003d0:	00d58833          	add	x16,x11,x13
100003d4:	00080023          	sb	x0,0(x16)
100003d8:	00058513          	mv	x10,x11
100003dc:	00008067          	ret

100003e0 <uint32_to_ascii_hex>:
100003e0:	00000693          	li	x13,0
100003e4:	00900e93          	li	x29,9
100003e8:	00800e13          	li	x28,8
100003ec:	0100006f          	j	100003fc <uint32_to_ascii_hex+0x1c>
100003f0:	fe680fa3          	sb	x6,-1(x16)
100003f4:	00070693          	mv	x13,x14
100003f8:	05c70063          	beq	x14,x28,10000438 <uint32_to_ascii_hex+0x58>
100003fc:	00168713          	addi	x14,x13,1
10000400:	40e007b3          	neg	x15,x14
10000404:	00279793          	slli	x15,x15,0x2
10000408:	02078793          	addi	x15,x15,32
1000040c:	00f557b3          	srl	x15,x10,x15
10000410:	00f7f793          	andi	x15,x15,15
10000414:	00e58833          	add	x16,x11,x14
10000418:	03078313          	addi	x6,x15,48
1000041c:	05778893          	addi	x17,x15,87
10000420:	02c77263          	bgeu	x14,x12,10000444 <uint32_to_ascii_hex+0x64>
10000424:	fcfef6e3          	bgeu	x29,x15,100003f0 <uint32_to_ascii_hex+0x10>
10000428:	00e58833          	add	x16,x11,x14
1000042c:	ff180fa3          	sb	x17,-1(x16)
10000430:	00070693          	mv	x13,x14
10000434:	fdc714e3          	bne	x14,x28,100003fc <uint32_to_ascii_hex+0x1c>
10000438:	00080023          	sb	x0,0(x16)
1000043c:	00058513          	mv	x10,x11
10000440:	00008067          	ret
10000444:	00d58833          	add	x16,x11,x13
10000448:	00080023          	sb	x0,0(x16)
1000044c:	00058513          	mv	x10,x11
10000450:	00008067          	ret

10000454 <uwrite_int8>:
10000454:	80000737          	lui	x14,0x80000
10000458:	00072783          	lw	x15,0(x14) # 80000000 <f+0x6ffffa00>
1000045c:	0017f793          	andi	x15,x15,1
10000460:	fe078ce3          	beqz	x15,10000458 <uwrite_int8+0x4>
10000464:	00a72423          	sw	x10,8(x14)
10000468:	00008067          	ret

1000046c <uwrite_int8s>:
1000046c:	00054603          	lbu	x12,0(x10)
10000470:	02060463          	beqz	x12,10000498 <uwrite_int8s+0x2c>
10000474:	00150693          	addi	x13,x10,1
10000478:	80000737          	lui	x14,0x80000
1000047c:	00072783          	lw	x15,0(x14) # 80000000 <f+0x6ffffa00>
10000480:	0017f793          	andi	x15,x15,1
10000484:	fe078ce3          	beqz	x15,1000047c <uwrite_int8s+0x10>
10000488:	00c72423          	sw	x12,8(x14)
1000048c:	00168693          	addi	x13,x13,1
10000490:	fff6c603          	lbu	x12,-1(x13)
10000494:	fe0614e3          	bnez	x12,1000047c <uwrite_int8s+0x10>
10000498:	00008067          	ret

1000049c <uread_int8>:
1000049c:	80000737          	lui	x14,0x80000
100004a0:	00072783          	lw	x15,0(x14) # 80000000 <f+0x6ffffa00>
100004a4:	0027f793          	andi	x15,x15,2
100004a8:	fe078ce3          	beqz	x15,100004a0 <uread_int8+0x4>
100004ac:	00472683          	lw	x13,4(x14)
100004b0:	00d00793          	li	x15,13
100004b4:	80000737          	lui	x14,0x80000
100004b8:	0ff6f513          	andi	x10,x13,255
100004bc:	00f50e63          	beq	x10,x15,100004d8 <uread_int8+0x3c>
100004c0:	00072783          	lw	x15,0(x14) # 80000000 <f+0x6ffffa00>
100004c4:	0017f793          	andi	x15,x15,1
100004c8:	fe078ce3          	beqz	x15,100004c0 <uread_int8+0x24>
100004cc:	0ff6f693          	andi	x13,x13,255
100004d0:	00d72423          	sw	x13,8(x14)
100004d4:	00008067          	ret
100004d8:	00000617          	auipc	x12,0x0
100004dc:	11d60613          	addi	x12,x12,285 # 100005f5 <main+0x61>
100004e0:	00d00693          	li	x13,13
100004e4:	00072783          	lw	x15,0(x14)
100004e8:	0017f793          	andi	x15,x15,1
100004ec:	fe078ce3          	beqz	x15,100004e4 <uread_int8+0x48>
100004f0:	00d72423          	sw	x13,8(x14)
100004f4:	00160613          	addi	x12,x12,1
100004f8:	fff64683          	lbu	x13,-1(x12)
100004fc:	fe0694e3          	bnez	x13,100004e4 <uread_int8+0x48>
10000500:	00008067          	ret

10000504 <uread_int8_noecho>:
10000504:	80000737          	lui	x14,0x80000
10000508:	00072783          	lw	x15,0(x14) # 80000000 <f+0x6ffffa00>
1000050c:	0027f793          	andi	x15,x15,2
10000510:	fe078ce3          	beqz	x15,10000508 <uread_int8_noecho+0x4>
10000514:	00472503          	lw	x10,4(x14)
10000518:	0ff57513          	andi	x10,x10,255
1000051c:	00008067          	ret

10000520 <strcmp>:
10000520:	00054703          	lbu	x14,0(x10)
10000524:	0005c783          	lbu	x15,0(x11)
10000528:	02e79663          	bne	x15,x14,10000554 <strcmp+0x34>
1000052c:	02078863          	beqz	x15,1000055c <strcmp+0x3c>
10000530:	00150513          	addi	x10,x10,1
10000534:	00158593          	addi	x11,x11,1
10000538:	0080006f          	j	10000540 <strcmp+0x20>
1000053c:	02078063          	beqz	x15,1000055c <strcmp+0x3c>
10000540:	00054703          	lbu	x14,0(x10)
10000544:	0005c783          	lbu	x15,0(x11)
10000548:	00150513          	addi	x10,x10,1
1000054c:	00158593          	addi	x11,x11,1
10000550:	fee786e3          	beq	x15,x14,1000053c <strcmp+0x1c>
10000554:	00100513          	li	x10,1
10000558:	00008067          	ret
1000055c:	00000513          	li	x10,0
10000560:	00008067          	ret

10000564 <strlen>:
10000564:	00054783          	lbu	x15,0(x10)
10000568:	02078063          	beqz	x15,10000588 <strlen+0x24>
1000056c:	00000793          	li	x15,0
10000570:	00178793          	addi	x15,x15,1
10000574:	00f50733          	add	x14,x10,x15
10000578:	00074703          	lbu	x14,0(x14)
1000057c:	fe071ae3          	bnez	x14,10000570 <strlen+0xc>
10000580:	00078513          	mv	x10,x15
10000584:	00008067          	ret
10000588:	00000793          	li	x15,0
1000058c:	00078513          	mv	x10,x15
10000590:	00008067          	ret

Disassembly of section .text.startup:

10000594 <main>:
10000594:	ff010113          	addi	x2,x2,-16
10000598:	00112623          	sw	x1,12(x2)
1000059c:	00000793          	li	x15,0
100005a0:	51e79073          	csrw	0x51e,x15
100005a4:	00000597          	auipc	x11,0x0
100005a8:	05458593          	addi	x11,x11,84 # 100005f8 <m>
100005ac:	00000517          	auipc	x10,0x0
100005b0:	05450513          	addi	x10,x10,84 # 10000600 <f>
100005b4:	a59ff0ef          	jal	x1,1000000c <copy>
100005b8:	00000597          	auipc	x11,0x0
100005bc:	04058593          	addi	x11,x11,64 # 100005f8 <m>
100005c0:	00000517          	auipc	x10,0x0
100005c4:	04050513          	addi	x10,x10,64 # 10000600 <f>
100005c8:	f59ff0ef          	jal	x1,10000520 <strcmp>
100005cc:	00051c63          	bnez	x10,100005e4 <main+0x50>
100005d0:	00100793          	li	x15,1
100005d4:	51e79073          	csrw	0x51e,x15
100005d8:	00000013          	nop
100005dc:	00000013          	nop
100005e0:	ff9ff06f          	j	100005d8 <main+0x44>
100005e4:	00200793          	li	x15,2
100005e8:	51e79073          	csrw	0x51e,x15
100005ec:	00000013          	nop
100005f0:	fedff06f          	j	100005dc <main+0x48>

Disassembly of section .rodata.str1.4:

100005f4 <.rodata.str1.4>:
100005f4:	0a0d                	addi	x20,x20,3
	...

Disassembly of section .sdata:

100005f8 <m>:
100005f8:	7361                	lui	x6,0xffff8
100005fa:	6664                	flw	f9,76(x12)
100005fc:	00006867          	0x6867

10000600 <f>:
10000600:	6261                	lui	x4,0x18
10000602:	00656463          	bltu	x10,x6,1000060a <f+0xa>

Disassembly of section .comment:

00000000 <.comment>:
   0:	3a434347          	fmsub.d	f6,f6,f4,f7,rmm
   4:	2820                	fld	f8,80(x8)
   6:	69466953          	0x69466953
   a:	6576                	flw	f10,92(x2)
   c:	4720                	lw	x8,72(x14)
   e:	38204343          	fmadd.s	f6,f0,f2,f7,rmm
  12:	322e                	fld	f4,232(x2)
  14:	302e                	fld	f0,232(x2)
  16:	322d                	jal	fffff940 <f+0xeffff340>
  18:	3130                	fld	f12,96(x10)
  1a:	2e39                	jal	338 <_start-0xffffcc8>
  1c:	3530                	fld	f12,104(x10)
  1e:	332e                	fld	f6,232(x2)
  20:	2029                	jal	2a <_start-0xfffffd6>
  22:	2e38                	fld	f14,88(x12)
  24:	2e32                	fld	f28,264(x2)
  26:	0030                	addi	x12,x2,8

Disassembly of section .riscv.attributes:

00000000 <.riscv.attributes>:
   0:	1941                	addi	x18,x18,-16
   2:	0000                	unimp
   4:	7200                	flw	f8,32(x12)
   6:	7369                	lui	x6,0xffffa
   8:	01007663          	bgeu	x0,x16,14 <_start-0xfffffec>
   c:	0000000f          	fence	unknown,unknown
  10:	7205                	lui	x4,0xfffe1
  12:	3376                	fld	f6,376(x2)
  14:	6932                	flw	f18,12(x2)
  16:	7032                	flw	f0,44(x2)
  18:	0030                	addi	x12,x2,8
